; Function Attrs: nounwind uwtable
define range(i32 -1, 1) i32 @tjCompressFromYUV(ptr noundef %0, ptr noundef %1, i32 noundef %2, i32 noundef %3, i32 noundef %4, i32 noundef %5, ptr noundef %6, ptr nocapture noundef %7, i32 noundef %8, i32 noundef %9) local_unnamed_addr #0 {
  %11 = alloca i64, align 8
  %.not = icmp eq ptr %0, null
  br i1 %.not, label %12, label %15

12:                                               ; preds = %10
  %13 = tail call align 16 ptr @llvm.threadlocal.address.p0(ptr align 16 @errStr)
  %14 = tail call i32 (ptr, i64, ptr, ...) @snprintf(ptr noundef nonnull dereferenceable(1) %13, i64 noundef 200, ptr noundef nonnull @.str.4, ptr noundef nonnull @tjCompressFromYUV.FUNCTION_NAME) #26
  br label %53

15:                                               ; preds = %10
  %16 = getelementptr inbounds i8, ptr %0, i64 1528
  store i32 0, ptr %16, align 8
  %17 = getelementptr inbounds i8, ptr %0, i64 1740
  store i32 0, ptr %17, align 4
  %or.cond = icmp ugt i32 %5, 6
  br i1 %or.cond, label %18, label %23

18:                                               ; preds = %15
  %19 = getelementptr inbounds i8, ptr %0, i64 1540
  %20 = tail call i32 (ptr, i64, ptr, ...) @snprintf(ptr noundef nonnull dereferenceable(1) %19, i64 noundef 200, ptr noundef nonnull @.str, ptr noundef nonnull @tjCompressFromYUV.FUNCTION_NAME, ptr noundef nonnull @.str.1) #26
  store i32 1, ptr %17, align 4
  %21 = tail call align 16 ptr @llvm.threadlocal.address.p0(ptr align 16 @errStr)
  %22 = tail call i32 (ptr, i64, ptr, ...) @snprintf(ptr noundef nonnull dereferenceable(1) %21, i64 noundef 200, ptr noundef nonnull @.str, ptr noundef nonnull @tjCompressFromYUV.FUNCTION_NAME, ptr noundef nonnull @.str.1) #26
  br label %53

23:                                               ; preds = %15
  %24 = getelementptr inbounds i8, ptr %0, i64 1752
  store i32 %8, ptr %24, align 8
  %25 = getelementptr inbounds i8, ptr %0, i64 1756
  store i32 %5, ptr %25, align 4
  %26 = lshr i32 %9, 1
  %.lobit.i = and i32 %26, 1
  %27 = getelementptr inbounds i8, ptr %0, i64 1744
  store i32 %.lobit.i, ptr %27, align 8
  %28 = and i32 %9, 8
  %.not.i = icmp eq i32 %28, 0
  br i1 %.not.i, label %29, label %.sink.split.i

29:                                               ; preds = %23
  %30 = and i32 %9, 16
  %.not39.i = icmp eq i32 %30, 0
  br i1 %.not39.i, label %31, label %.sink.split.i

31:                                               ; preds = %29
  %32 = and i32 %9, 32
  %.not40.i = icmp eq i32 %32, 0
  br i1 %.not40.i, label %34, label %.sink.split.i

.sink.split.i:                                    ; preds = %31, %29, %23
  %.str.125.sink.i = phi ptr [ @.str.123, %23 ], [ @.str.125, %29 ], [ @.str.126, %31 ]
  %33 = tail call i32 @setenv(ptr noundef nonnull %.str.125.sink.i, ptr noundef nonnull @.str.124, i32 noundef 1) #26
  %.pre = load i32, ptr %24, align 8
  br label %34

34:                                               ; preds = %.sink.split.i, %31
  %35 = phi i32 [ %.pre, %.sink.split.i ], [ %8, %31 ]
  %36 = lshr i32 %9, 8
  %.lobit41.i = and i32 %36, 1
  %37 = getelementptr inbounds i8, ptr %0, i64 1776
  store i32 %.lobit41.i, ptr %37, align 8
  %38 = lshr i32 %9, 10
  %.lobit42.i = and i32 %38, 1
  %39 = getelementptr inbounds i8, ptr %0, i64 1748
  store i32 %.lobit42.i, ptr %39, align 4
  %40 = icmp slt i32 %35, 96
  %41 = and i32 %9, 4096
  %.not44.i = icmp eq i32 %41, 0
  %or.cond.i = and i1 %.not44.i, %40
  %42 = getelementptr inbounds i8, ptr %0, i64 1780
  %. = zext i1 %or.cond.i to i32
  store i32 %., ptr %42, align 4
  %43 = lshr i32 %9, 13
  %.lobit45.i = and i32 %43, 1
  %44 = getelementptr inbounds i8, ptr %0, i64 1532
  store i32 %.lobit45.i, ptr %44, align 4
  %45 = lshr i32 %9, 14
  %.lobit46.i = and i32 %45, 1
  %46 = getelementptr inbounds i8, ptr %0, i64 1788
  store i32 %.lobit46.i, ptr %46, align 4
  %47 = and i32 %9, 32768
  %.not47.i = icmp eq i32 %47, 0
  br i1 %.not47.i, label %processFlags.exit, label %48

48:                                               ; preds = %34
  %49 = getelementptr inbounds i8, ptr %0, i64 1792
  store i32 500, ptr %49, align 8
  br label %processFlags.exit

processFlags.exit:                                ; preds = %34, %48
  %50 = load i64, ptr %7, align 8
  store i64 %50, ptr %11, align 8
  %51 = call i32 @tj3CompressFromYUV8(ptr noundef nonnull %0, ptr noundef %1, i32 noundef %2, i32 noundef %3, i32 noundef %4, ptr noundef %6, ptr noundef nonnull %11)
  %52 = load i64, ptr %11, align 8
  store i64 %52, ptr %7, align 8
  br label %53

53:                                               ; preds = %18, %processFlags.exit, %12
  %.0 = phi i32 [ -1, %12 ], [ -1, %18 ], [ %51, %processFlags.exit ]
  ret i32 %.0
}